target datalayout = "e-m:e-p270:32:32-p271:32:32-p272:64:64-i64:64-i128:128-f80:128-n8:16:32:64-S128"
target triple = "x86_64-pc-linux-gnu"

%"class.std::__1::basic_string" = type { %"class.std::__1::__compressed_pair.2" }
%"class.std::__1::__compressed_pair.2" = type { %"struct.std::__1::__compressed_pair_elem.3" }
%"struct.std::__1::__compressed_pair_elem.3" = type { %"struct.std::__1::basic_string<char>::__rep" }
%"struct.std::__1::basic_string<char>::__rep" = type { %union.anon }
%union.anon = type { %"struct.std::__1::basic_string<char>::__long" }
%"struct.std::__1::basic_string<char>::__long" = type { %struct.anon.4, i64, ptr }
%struct.anon.4 = type { i64 }
%"class.mitsuba::ZStream" = type <{ %"class.mitsuba::Stream", %"class.mitsuba::ref", %"class.std::__1::unique_ptr", %"class.std::__1::unique_ptr", [32768 x i8], [32768 x i8], i8, [7 x i8] }>
%"class.mitsuba::Stream" = type { %"class.mitsuba::Object.base", i32 }
%"class.mitsuba::Object.base" = type <{ ptr, %"struct.std::__1::atomic" }>
%"struct.std::__1::atomic" = type { %"struct.std::__1::__atomic_base" }
%"struct.std::__1::__atomic_base" = type { %"struct.std::__1::__atomic_base.0" }
%"struct.std::__1::__atomic_base.0" = type { %"struct.std::__1::__cxx_atomic_impl" }
%"struct.std::__1::__cxx_atomic_impl" = type { %"struct.std::__1::__cxx_atomic_base_impl" }
%"struct.std::__1::__cxx_atomic_base_impl" = type { i32 }
%"class.mitsuba::ref" = type { ptr }
%"class.std::__1::unique_ptr" = type { %"class.std::__1::__compressed_pair" }
%"class.std::__1::__compressed_pair" = type { %"struct.std::__1::__compressed_pair_elem" }
%"struct.std::__1::__compressed_pair_elem" = type { ptr }
%struct.z_stream_s = type { ptr, i32, i64, ptr, i32, i64, ptr, ptr, ptr, ptr, ptr, i32, i64, i64 }
%"class.mitsuba::Object" = type <{ ptr, %"struct.std::__1::atomic", [4 x i8] }>

@_ZN7mitsuba7ZStream7m_classE = global ptr null, align 8
@.str.1 = private unnamed_addr constant [116 x i8] c"generated/home/dtcxzyw/WorkSpace/Projects/compilers/llvm-opt-benchmark/bench/mitsuba3/mitsuba3/src/core/zstream.cpp\00", align 1
@.str.3 = private unnamed_addr constant [25 x i8] c"deflate(): stream error!\00", align 1

; Function Attrs: mustprogress nounwind uwtable
define linkonce_odr hidden noundef i32 @_ZNSt3__122__cxx_atomic_fetch_addB8ne190000IiEET_PNS_22__cxx_atomic_base_implIS1_EES1_NS_12memory_orderE(ptr noundef %0, i32 noundef %1, i32 noundef %2) #4 comdat {
  %4 = alloca ptr, align 8
  %5 = alloca i32, align 4
  %6 = alloca i32, align 4
  %7 = alloca i32, align 4
  %8 = alloca i32, align 4
  store ptr %0, ptr %4, align 8
  store i32 %1, ptr %5, align 4
  store i32 %2, ptr %6, align 4
  %9 = load ptr, ptr %4, align 8
  %10 = getelementptr inbounds %"struct.std::__1::__cxx_atomic_base_impl", ptr %9, i32 0, i32 0
  %11 = load i32, ptr %6, align 4
  %12 = load i32, ptr %5, align 4
  store i32 %12, ptr %7, align 4
  switch i32 %11, label %13 [
    i32 1, label %16
    i32 2, label %16
    i32 3, label %19
    i32 4, label %22
    i32 5, label %25
  ]

13:                                               ; preds = %3
  %14 = load i32, ptr %7, align 4
  %15 = atomicrmw add ptr %10, i32 %14 monotonic, align 4
  store i32 %15, ptr %8, align 4
  br label %28

16:                                               ; preds = %3, %3
  %17 = load i32, ptr %7, align 4
  %18 = atomicrmw add ptr %10, i32 %17 acquire, align 4
  store i32 %18, ptr %8, align 4
  br label %28

19:                                               ; preds = %3
  %20 = load i32, ptr %7, align 4
  %21 = atomicrmw add ptr %10, i32 %20 release, align 4
  store i32 %21, ptr %8, align 4
  br label %28

22:                                               ; preds = %3
  %23 = load i32, ptr %7, align 4
  %24 = atomicrmw add ptr %10, i32 %23 acq_rel, align 4
  store i32 %24, ptr %8, align 4
  br label %28

25:                                               ; preds = %3
  %26 = load i32, ptr %7, align 4
  %27 = atomicrmw add ptr %10, i32 %26 seq_cst, align 4
  store i32 %27, ptr %8, align 4
  br label %28

28:                                               ; preds = %25, %22, %19, %16, %13
  %29 = load i32, ptr %8, align 4
  ret i32 %29
}

; Function Attrs: mustprogress nounwind uwtable
define linkonce_odr hidden noundef i32 @_ZNSt3__113__atomic_baseIiLb1EE9fetch_addB8ne190000EiNS_12memory_orderE(ptr noundef nonnull align 4 dereferenceable(4) %0, i32 noundef %1, i32 noundef %2) #4 comdat align 2 {
  %4 = alloca ptr, align 8
  %5 = alloca i32, align 4
  %6 = alloca i32, align 4
  store ptr %0, ptr %4, align 8
  store i32 %1, ptr %5, align 4
  store i32 %2, ptr %6, align 4
  %7 = load ptr, ptr %4, align 8
  %8 = getelementptr inbounds %"struct.std::__1::__atomic_base.0", ptr %7, i32 0, i32 0
  %9 = load i32, ptr %5, align 4
  %10 = load i32, ptr %6, align 4
  %11 = call noundef i32 @_ZNSt3__122__cxx_atomic_fetch_addB8ne190000IiEET_PNS_22__cxx_atomic_base_implIS1_EES1_NS_12memory_orderE(ptr noundef %8, i32 noundef %9, i32 noundef %10) #17
  ret i32 %11
}

; Function Attrs: mustprogress nounwind uwtable
define linkonce_odr hidden noundef i32 @_ZNSt3__113__atomic_baseIiLb1EEppB8ne190000Ev(ptr noundef nonnull align 4 dereferenceable(4) %0) #4 comdat align 2 {
  %2 = alloca ptr, align 8
  store ptr %0, ptr %2, align 8
  %3 = load ptr, ptr %2, align 8
  %4 = call noundef i32 @_ZNSt3__113__atomic_baseIiLb1EE9fetch_addB8ne190000EiNS_12memory_orderE(ptr noundef nonnull align 4 dereferenceable(4) %3, i32 noundef 1, i32 noundef 5) #17
  %5 = add nsw i32 %4, 1
  ret i32 %5
}

; Function Attrs: mustprogress nounwind uwtable
define linkonce_odr hidden noundef nonnull align 8 dereferenceable(8) ptr @_ZNKSt3__122__compressed_pair_elemIP10z_stream_sLi0ELb0EE5__getB8ne190000Ev(ptr noundef nonnull align 8 dereferenceable(8) %0) #4 comdat align 2 {
  %2 = alloca ptr, align 8
  store ptr %0, ptr %2, align 8
  %3 = load ptr, ptr %2, align 8
  %4 = getelementptr inbounds %"struct.std::__1::__compressed_pair_elem", ptr %3, i32 0, i32 0
  ret ptr %4
}

; Function Attrs: mustprogress nounwind uwtable
define linkonce_odr void @_ZNK7mitsuba6Object7inc_refEv(ptr noundef nonnull align 8 dereferenceable(12) %0) #4 comdat align 2 {
  %2 = alloca ptr, align 8
  store ptr %0, ptr %2, align 8
  %3 = load ptr, ptr %2, align 8
  %4 = getelementptr inbounds %"class.mitsuba::Object", ptr %3, i32 0, i32 1
  %5 = call noundef i32 @_ZNSt3__113__atomic_baseIiLb1EEppB8ne190000Ev(ptr noundef nonnull align 4 dereferenceable(4) %4) #17
  ret void
}

; Function Attrs: mustprogress nounwind uwtable
define linkonce_odr hidden noundef nonnull align 8 dereferenceable(8) ptr @_ZNKSt3__117__compressed_pairIP10z_stream_sNS_14default_deleteIS1_EEE5firstB8ne190000Ev(ptr noundef nonnull align 8 dereferenceable(8) %0) #4 comdat align 2 {
  %2 = alloca ptr, align 8
  store ptr %0, ptr %2, align 8
  %3 = load ptr, ptr %2, align 8
  %4 = call noundef nonnull align 8 dereferenceable(8) ptr @_ZNKSt3__122__compressed_pair_elemIP10z_stream_sLi0ELb0EE5__getB8ne190000Ev(ptr noundef nonnull align 8 dereferenceable(8) %3) #17
  ret ptr %4
}

; Function Attrs: mustprogress nounwind uwtable
define linkonce_odr hidden noundef nonnull align 8 dereferenceable(8) ptr @_ZN7mitsuba3refINS_6StreamEEaSIS1_EERS2_PS1_(ptr noundef nonnull align 8 dereferenceable(8) %0, ptr noundef %1) #4 comdat align 2 {
  %3 = alloca ptr, align 8
  %4 = alloca ptr, align 8
  store ptr %0, ptr %3, align 8
  store ptr %1, ptr %4, align 8
  %5 = load ptr, ptr %3, align 8
  %6 = getelementptr inbounds %"class.mitsuba::ref", ptr %5, i32 0, i32 0
  %7 = load ptr, ptr %6, align 8
  %8 = load ptr, ptr %4, align 8
  %9 = icmp ne ptr %7, %8
  br i1 %9, label %10, label %25

10:                                               ; preds = %2
  %11 = load ptr, ptr %4, align 8
  %12 = icmp ne ptr %11, null
  br i1 %12, label %13, label %15

13:                                               ; preds = %10
  %14 = load ptr, ptr %4, align 8
  call void @_ZNK7mitsuba6Object7inc_refEv(ptr noundef nonnull align 8 dereferenceable(12) %14)
  br label %15

15:                                               ; preds = %13, %10
  %16 = getelementptr inbounds %"class.mitsuba::ref", ptr %5, i32 0, i32 0
  %17 = load ptr, ptr %16, align 8
  %18 = icmp ne ptr %17, null
  br i1 %18, label %19, label %22

19:                                               ; preds = %15
  %20 = getelementptr inbounds %"class.mitsuba::ref", ptr %5, i32 0, i32 0
  %21 = load ptr, ptr %20, align 8
  call void @_ZNK7mitsuba6Object7dec_refEb(ptr noundef nonnull align 8 dereferenceable(12) %21, i1 noundef zeroext true) #17
  br label %22

22:                                               ; preds = %19, %15
  %23 = load ptr, ptr %4, align 8
  %24 = getelementptr inbounds %"class.mitsuba::ref", ptr %5, i32 0, i32 0
  store ptr %23, ptr %24, align 8
  br label %25

25:                                               ; preds = %22, %2
  ret ptr %5
}

; Function Attrs: mustprogress nounwind uwtable
define linkonce_odr hidden noundef ptr @_ZN7mitsuba3refINS_6StreamEEptEv(ptr noundef nonnull align 8 dereferenceable(8) %0) #4 comdat align 2 {
  %2 = alloca ptr, align 8
  store ptr %0, ptr %2, align 8
  %3 = load ptr, ptr %2, align 8
  %4 = getelementptr inbounds %"class.mitsuba::ref", ptr %3, i32 0, i32 0
  %5 = load ptr, ptr %4, align 8
  ret ptr %5
}

; Function Attrs: mustprogress nounwind uwtable
define linkonce_odr hidden noundef ptr @_ZNKSt3__110unique_ptrI10z_stream_sNS_14default_deleteIS1_EEE3getB8ne190000Ev(ptr noundef nonnull align 8 dereferenceable(8) %0) #4 comdat align 2 {
  %2 = alloca ptr, align 8
  store ptr %0, ptr %2, align 8
  %3 = load ptr, ptr %2, align 8
  %4 = getelementptr inbounds %"class.std::__1::unique_ptr", ptr %3, i32 0, i32 0
  %5 = call noundef nonnull align 8 dereferenceable(8) ptr @_ZNKSt3__117__compressed_pairIP10z_stream_sNS_14default_deleteIS1_EEE5firstB8ne190000Ev(ptr noundef nonnull align 8 dereferenceable(8) %4) #17
  %6 = load ptr, ptr %5, align 8
  ret ptr %6
}

; Function Attrs: mustprogress nounwind uwtable
define linkonce_odr hidden noundef ptr @_ZNKSt3__110unique_ptrI10z_stream_sNS_14default_deleteIS1_EEEptB8ne190000Ev(ptr noundef nonnull align 8 dereferenceable(8) %0) #4 comdat align 2 {
  %2 = alloca ptr, align 8
  store ptr %0, ptr %2, align 8
  %3 = load ptr, ptr %2, align 8
  %4 = getelementptr inbounds %"class.std::__1::unique_ptr", ptr %3, i32 0, i32 0
  %5 = call noundef nonnull align 8 dereferenceable(8) ptr @_ZNKSt3__117__compressed_pairIP10z_stream_sNS_14default_deleteIS1_EEE5firstB8ne190000Ev(ptr noundef nonnull align 8 dereferenceable(8) %4) #17
  %6 = load ptr, ptr %5, align 8
  ret ptr %6
}

; Function Attrs: mustprogress nounwind uwtable
define linkonce_odr hidden noundef ptr @_ZN7mitsuba3refINS_6StreamEEcvPS1_Ev(ptr noundef nonnull align 8 dereferenceable(8) %0) #4 comdat align 2 {
  %2 = alloca ptr, align 8
  store ptr %0, ptr %2, align 8
  %3 = load ptr, ptr %2, align 8
  %4 = getelementptr inbounds %"class.mitsuba::ref", ptr %3, i32 0, i32 0
  %5 = load ptr, ptr %4, align 8
  ret ptr %5
}

; Function Attrs: mustprogress uwtable
define void @_ZN7mitsuba7ZStream5closeEv(ptr noundef nonnull align 8 dereferenceable(65577) %0) unnamed_addr #0 align 2 personality ptr @__gxx_personality_v0 {
  %2 = alloca ptr, align 8
  %3 = alloca i32, align 4
  %4 = alloca i32, align 4
  %5 = alloca %"class.std::__1::basic_string", align 8
  %6 = alloca ptr, align 8
  %7 = alloca i32, align 4
  store ptr %0, ptr %2, align 8
  %8 = load ptr, ptr %2, align 8
  %9 = getelementptr inbounds %"class.mitsuba::ZStream", ptr %8, i32 0, i32 1
  %10 = call noundef ptr @_ZN7mitsuba3refINS_6StreamEEcvPS1_Ev(ptr noundef nonnull align 8 dereferenceable(8) %9)
  %11 = icmp ne ptr %10, null
  br i1 %11, label %13, label %12

12:                                               ; preds = %1
  br label %77

13:                                               ; preds = %1
  %14 = getelementptr inbounds %"class.mitsuba::ZStream", ptr %8, i32 0, i32 6
  %15 = load i8, ptr %14, align 8
  %16 = trunc i8 %15 to i1
  br i1 %16, label %17, label %68

17:                                               ; preds = %13
  %18 = getelementptr inbounds %"class.mitsuba::ZStream", ptr %8, i32 0, i32 2
  %19 = call noundef ptr @_ZNKSt3__110unique_ptrI10z_stream_sNS_14default_deleteIS1_EEEptB8ne190000Ev(ptr noundef nonnull align 8 dereferenceable(8) %18) #17
  %20 = getelementptr inbounds %struct.z_stream_s, ptr %19, i32 0, i32 1
  store i32 0, ptr %20, align 8
  %21 = getelementptr inbounds %"class.mitsuba::ZStream", ptr %8, i32 0, i32 2
  %22 = call noundef ptr @_ZNKSt3__110unique_ptrI10z_stream_sNS_14default_deleteIS1_EEEptB8ne190000Ev(ptr noundef nonnull align 8 dereferenceable(8) %21) #17
  %23 = getelementptr inbounds %struct.z_stream_s, ptr %22, i32 0, i32 0
  store ptr null, ptr %23, align 8
  store i32 0, ptr %3, align 4
  br label %24

24:                                               ; preds = %64, %17
  %25 = getelementptr inbounds %"class.mitsuba::ZStream", ptr %8, i32 0, i32 2
  %26 = call noundef ptr @_ZNKSt3__110unique_ptrI10z_stream_sNS_14default_deleteIS1_EEEptB8ne190000Ev(ptr noundef nonnull align 8 dereferenceable(8) %25) #17
  %27 = getelementptr inbounds %struct.z_stream_s, ptr %26, i32 0, i32 4
  store i32 32768, ptr %27, align 8
  %28 = getelementptr inbounds %"class.mitsuba::ZStream", ptr %8, i32 0, i32 4
  %29 = getelementptr inbounds [32768 x i8], ptr %28, i64 0, i64 0
  %30 = getelementptr inbounds %"class.mitsuba::ZStream", ptr %8, i32 0, i32 2
  %31 = call noundef ptr @_ZNKSt3__110unique_ptrI10z_stream_sNS_14default_deleteIS1_EEEptB8ne190000Ev(ptr noundef nonnull align 8 dereferenceable(8) %30) #17
  %32 = getelementptr inbounds %struct.z_stream_s, ptr %31, i32 0, i32 3
  store ptr %29, ptr %32, align 8
  %33 = getelementptr inbounds %"class.mitsuba::ZStream", ptr %8, i32 0, i32 2
  %34 = call noundef ptr @_ZNKSt3__110unique_ptrI10z_stream_sNS_14default_deleteIS1_EEE3getB8ne190000Ev(ptr noundef nonnull align 8 dereferenceable(8) %33) #17
  %35 = call i32 @deflate(ptr noundef %34, i32 noundef 4)
  store i32 %35, ptr %4, align 4
  %36 = load i32, ptr %4, align 4
  %37 = icmp eq i32 %36, -2
  br i1 %37, label %38, label %47

38:                                               ; preds = %24
  br label %39

39:                                               ; preds = %38
  %40 = load ptr, ptr @_ZN7mitsuba7ZStream7m_classE, align 8
  call void @_ZN10tinyformat6formatIJEEENSt3__112basic_stringIcNS1_11char_traitsIcEENS1_9allocatorIcEEEEPKcDpRKT_(ptr dead_on_unwind writable sret(%"class.std::__1::basic_string") align 8 %5, ptr noundef @.str.3)
  invoke void @_ZN7mitsuba6detail5ThrowENS_8LogLevelEPKNS_5ClassEPKciRKNSt3__112basic_stringIcNS7_11char_traitsIcEENS7_9allocatorIcEEEE(i32 noundef 400, ptr noundef %40, ptr noundef @.str.1, i32 noundef 141, ptr noundef nonnull align 8 dereferenceable(24) %5) #18
          to label %41 unwind label %42

41:                                               ; preds = %39
  unreachable

42:                                               ; preds = %39
  %43 = landingpad { ptr, i32 }
          cleanup
  %44 = extractvalue { ptr, i32 } %43, 0
  store ptr %44, ptr %6, align 8
  %45 = extractvalue { ptr, i32 } %43, 1
  store i32 %45, ptr %7, align 4
  call void @_ZNSt3__112basic_stringIcNS_11char_traitsIcEENS_9allocatorIcEEED1Ev(ptr noundef nonnull align 8 dereferenceable(24) %5) #17
  br label %78

46:                                               ; No predecessors!
  br label %47

47:                                               ; preds = %46, %24
  %48 = getelementptr inbounds %"class.mitsuba::ZStream", ptr %8, i32 0, i32 2
  %49 = call noundef ptr @_ZNKSt3__110unique_ptrI10z_stream_sNS_14default_deleteIS1_EEEptB8ne190000Ev(ptr noundef nonnull align 8 dereferenceable(8) %48) #17
  %50 = getelementptr inbounds %struct.z_stream_s, ptr %49, i32 0, i32 4
  %51 = load i32, ptr %50, align 8
  %52 = zext i32 %51 to i64
  %53 = sub i64 32768, %52
  %54 = trunc i64 %53 to i32
  store i32 %54, ptr %3, align 4
  %55 = getelementptr inbounds %"class.mitsuba::ZStream", ptr %8, i32 0, i32 1
  %56 = call noundef ptr @_ZN7mitsuba3refINS_6StreamEEptEv(ptr noundef nonnull align 8 dereferenceable(8) %55)
  %57 = getelementptr inbounds %"class.mitsuba::ZStream", ptr %8, i32 0, i32 4
  %58 = getelementptr inbounds [32768 x i8], ptr %57, i64 0, i64 0
  %59 = load i32, ptr %3, align 4
  %60 = sext i32 %59 to i64
  %61 = load ptr, ptr %56, align 8
  %62 = getelementptr inbounds ptr, ptr %61, i64 12
  %63 = load ptr, ptr %62, align 8
  call void %63(ptr noundef nonnull align 8 dereferenceable(16) %56, ptr noundef %58, i64 noundef %60)
  br label %64

64:                                               ; preds = %47
  %65 = load i32, ptr %3, align 4
  %66 = icmp ne i32 %65, 0
  br i1 %66, label %24, label %67, !llvm.loop !8

67:                                               ; preds = %64
  br label %68

68:                                               ; preds = %67, %13
  %69 = getelementptr inbounds %"class.mitsuba::ZStream", ptr %8, i32 0, i32 2
  %70 = call noundef ptr @_ZNKSt3__110unique_ptrI10z_stream_sNS_14default_deleteIS1_EEE3getB8ne190000Ev(ptr noundef nonnull align 8 dereferenceable(8) %69) #17
  %71 = call i32 @deflateEnd(ptr noundef %70)
  %72 = getelementptr inbounds %"class.mitsuba::ZStream", ptr %8, i32 0, i32 3
  %73 = call noundef ptr @_ZNKSt3__110unique_ptrI10z_stream_sNS_14default_deleteIS1_EEE3getB8ne190000Ev(ptr noundef nonnull align 8 dereferenceable(8) %72) #17
  %74 = call i32 @inflateEnd(ptr noundef %73)
  %75 = getelementptr inbounds %"class.mitsuba::ZStream", ptr %8, i32 0, i32 1
  %76 = call noundef nonnull align 8 dereferenceable(8) ptr @_ZN7mitsuba3refINS_6StreamEEaSIS1_EERS2_PS1_(ptr noundef nonnull align 8 dereferenceable(8) %75, ptr noundef null) #17
  br label %77

77:                                               ; preds = %68, %12
  ret void

78:                                               ; preds = %42
  %79 = load ptr, ptr %6, align 8
  %80 = load i32, ptr %7, align 4
  %81 = insertvalue { ptr, i32 } poison, ptr %79, 0
  %82 = insertvalue { ptr, i32 } %81, i32 %80, 1
  resume { ptr, i32 } %82
}