; Function Attrs: mustprogress uwtable
define void @_ZN7mitsuba7ZStream5closeEv(ptr noundef nonnull align 8 dereferenceable(65577) %0) unnamed_addr #0 align 2 personality ptr @__gxx_personality_v0 {
  %2 = alloca %"class.std::__1::basic_string", align 8
  %3 = getelementptr inbounds i8, ptr %0, i64 16
  %4 = load ptr, ptr %3, align 8
  %.not = icmp eq ptr %4, null
  br i1 %.not, label %_ZN7mitsuba3refINS_6StreamEEaSIS1_EERS2_PS1_.exit, label %5

5:                                                ; preds = %1
  %6 = getelementptr inbounds i8, ptr %0, i64 65576
  %7 = load i8, ptr %6, align 8
  %8 = and i8 %7, 1
  %.not5 = icmp eq i8 %8, 0
  br i1 %.not5, label %.loopexit, label %9

9:                                                ; preds = %5
  %10 = getelementptr inbounds i8, ptr %0, i64 24
  %11 = load ptr, ptr %10, align 8
  %12 = getelementptr inbounds i8, ptr %11, i64 8
  store i32 0, ptr %12, align 8
  %13 = load ptr, ptr %10, align 8
  store ptr null, ptr %13, align 8
  %14 = getelementptr inbounds i8, ptr %0, i64 40
  br label %15

15:                                               ; preds = %28, %9
  %16 = load ptr, ptr %10, align 8
  %17 = getelementptr inbounds i8, ptr %16, i64 32
  store i32 32768, ptr %17, align 8
  %18 = load ptr, ptr %10, align 8
  %19 = getelementptr inbounds i8, ptr %18, i64 24
  store ptr %14, ptr %19, align 8
  %20 = load ptr, ptr %10, align 8
  %21 = tail call i32 @deflate(ptr noundef %20, i32 noundef 4)
  %22 = icmp eq i32 %21, -2
  br i1 %22, label %23, label %28

23:                                               ; preds = %15
  %24 = load ptr, ptr @_ZN7mitsuba7ZStream7m_classE, align 8
  call void @_ZN10tinyformat6formatIJEEENSt3__112basic_stringIcNS1_11char_traitsIcEENS1_9allocatorIcEEEEPKcDpRKT_(ptr dead_on_unwind nonnull writable sret(%"class.std::__1::basic_string") align 8 %2, ptr noundef nonnull @.str.3)
  invoke void @_ZN7mitsuba6detail5ThrowENS_8LogLevelEPKNS_5ClassEPKciRKNSt3__112basic_stringIcNS7_11char_traitsIcEENS7_9allocatorIcEEEE(i32 noundef 400, ptr noundef %24, ptr noundef nonnull @.str.1, i32 noundef 141, ptr noundef nonnull align 8 dereferenceable(24) %2) #14
          to label %25 unwind label %26

25:                                               ; preds = %23
  unreachable

26:                                               ; preds = %23
  %27 = landingpad { ptr, i32 }
          cleanup
  call void @_ZNSt3__112basic_stringIcNS_11char_traitsIcEENS_9allocatorIcEEED1Ev(ptr noundef nonnull align 8 dereferenceable(24) %2) #15
  resume { ptr, i32 } %27

28:                                               ; preds = %15
  %29 = load ptr, ptr %10, align 8
  %30 = getelementptr inbounds i8, ptr %29, i64 32
  %31 = load i32, ptr %30, align 8
  %32 = sub i32 32768, %31
  %33 = load ptr, ptr %3, align 8
  %34 = sext i32 %32 to i64
  %35 = load ptr, ptr %33, align 8
  %36 = getelementptr inbounds i8, ptr %35, i64 96
  %37 = load ptr, ptr %36, align 8
  tail call void %37(ptr noundef nonnull align 8 dereferenceable(16) %33, ptr noundef nonnull %14, i64 noundef %34)
  %.not6 = icmp eq i32 %31, 32768
  br i1 %.not6, label %.loopexit, label %15, !llvm.loop !14

.loopexit:                                        ; preds = %28, %5
  %38 = getelementptr inbounds i8, ptr %0, i64 24
  %39 = load ptr, ptr %38, align 8
  %40 = tail call i32 @deflateEnd(ptr noundef %39)
  %41 = getelementptr inbounds i8, ptr %0, i64 32
  %42 = load ptr, ptr %41, align 8
  %43 = tail call i32 @inflateEnd(ptr noundef %42)
  %44 = load ptr, ptr %3, align 8
  %.not.i = icmp eq ptr %44, null
  br i1 %.not.i, label %_ZN7mitsuba3refINS_6StreamEEaSIS1_EERS2_PS1_.exit, label %45

45:                                               ; preds = %.loopexit
  tail call void @_ZNK7mitsuba6Object7dec_refEb(ptr noundef nonnull align 8 dereferenceable(12) %44, i1 noundef zeroext true) #15
  store ptr null, ptr %3, align 8
  br label %_ZN7mitsuba3refINS_6StreamEEaSIS1_EERS2_PS1_.exit

_ZN7mitsuba3refINS_6StreamEEaSIS1_EERS2_PS1_.exit: ; preds = %45, %.loopexit, %1
  ret void
}